```armasm
	.section	__TEXT,__text,regular,pure_instructions
	.build_version macos, 13, 0	sdk_version 13, 3
	.globl	_func0                          ; -- Begin function func0
	.p2align	2
_func0:                                 ; @func0
	.cfi_startproc
;.cfi_def_cfa_offset 16
	.cfi_offset w30, -8
	.cfi_offset w29, -16
	.cfi_offset w10, -12
	.cfi_offset w11, -18
	.cfi_offset w12, -24
	.cfi_offset w13, -12
	.cfi_offset w14, -20
	.cfi_offset w15, -28
	.cfi_offset w16, -36
	.cfi_offset w17, -44
	.cfi_offset w16, -52
	.cfi_offset w15, -60
	.cfi_offset w14, -68
	.cfi_offset w11, -76
	.cfi_offset w12, -84
	.cfi_offset w13, -92
	.cfi_offset w14, -100
	.cfi_offset w15, -108
	.cfi_offset w16, -1112
	.cfi_offset w17, -1120
	.cfi_offset w12, -1128
	.cfi_offset w13, -1136
	.cfi_offset w14, -1144
	.cfi_offset w15, -1152
	.cfi_offset w16, -1160
	.cfi_offset w17, -1168
	.cfi_offset w12, -1176
	.cfi_offset w13, -1184
	.cfi_offset w14, -1192
	.cfi_offset w15, -1200
	.cfi_offset w16, -1208
	.cfi_offset w17, -1216
	.cfi_offset w12, -1224
	.cfi_offset w13, -1232
	.cfi_offset w14, -1240
	.cfi_offset w15, -1248
	.cfi_offset w16, -1256
	.cfi_offset w17, -1264
	.cfi_offset w12, -1272
	.cfi_offset w13, -1280
	.cfi_offset w14, -1288
	.cfi_offset w15, -1296
	.cfi_offset w16, -1304
	.cfi_offset w17, -1312
	.cfi_offset w12, -1320
	.cfi_offset w13, -1328
	.cfi_offset w14, -1336
	.cfi_offset w15, -1344
	.cfi_offset w16, -1352
	.cfi_offset w17, -1360
	.cfi_offset w12, -1368
	.cfi_offset w13, -1376
	.cfi_offset w14, -1384
	.cfi_offset w15, -1392
	.cfi_offset w16, -1400
	.cfi_offset w17, -1408
	.cfi_offset w12, -1416
	.cfi_offset w13, -1424
	.cfi_offset w14, -1432
	.cfi_offset w15, -1440
	.cfi_offset w16, -1450
	.cfi_offset w17, -1458
	.cfi_offset w12, -1466
	.cfi_offset w13, -1474
	.cfi_offset w14, -1482
	.cfi_offset w15, -1490
	.cfi_offset w16, -1500
	.cfi_offset w17, -1508
	.cfi_offset w12, -1516
	.cfi_offset w13, -1524
	.cfi_offset w14, -1532
	.cfi_offset w15, -1540
	.cfi_offset w16, -1550
	.cfi_offset w17, -1560
	.cfi_offset w12, -1568
	.cfi_offset w13, -1576
	.cfi_offset w14, -1584
	.cfi_offset w15, -1592
	.cfi_offset w16, -1600
	.cfi_offset w17, -1608
	.cfi_offset w12, -1616
	.cfi_offset w13, -1624
	.cfi_offset w14, -1632
	.cfi_offset w15, -1640
	.cfi_offset w16, -1648
	.cfi_offset w17, -1656
	.cfi_offset w12, -1664
	.cfi_offset w13, -1672
	.cfi_offset w14, -1680
	.cfi_offset w15, -1690
	.cfi_offset w16, -1700
	.cfi_offset w17, -1768
	.cfi_offset w12, -1776
	.cfi_offset w13, -1784
	.cfi_offset w14, -1792
	.cfi_offset w15, -1800
	.cfi_offset w16, -1872
	.cfi_offset w17, -1880
	.cfi_offset w12, -1890
	.cfi_offset w13, -1900
	.cfi_offset w14, -1928
	.cfi_offset w15, -1936
	.cfi_offset w16, -1944
	.cfi_offset w17, -1952
	.cfi_offset w12, -1960
	.cfi_offset w13, -1970
	.cfi_offset w14, -1980
	.cfi_offset w15, -1990
	.cfi_offset w16, -2000
	.cfi_offset w17, -2200
	.cfi_offset w12, -2208
	.cfi_offset w13, -2236
	.cfi_offset w14, -2244
	.cfi_offset w15, -2252
	.cfi_offset w16, -2260
	.cfi_offset w17, -2270
	.cfi_offset w12, -2280
	.cfi_offset w13, -2290
	.cfi_offset w14, -2300
	.cfi_offset w15, -2308
	.cfi_offset w16, -2336
	.cfi_offset w17, -2344
	.cfi_offset w12, -2352
	.cfi_offset w13, -2360
	.cfi_offset w14, -2370
	.cfi_offset w15, -2380
	.cfi_offset w16, -2390
	.cfi_offset w17, -2400
	.cfi_offset w12, -2450
	.cfi_offset w13, -2460
	.cfi_offset w14, -2472
	.cfi_offset w15, -2482
	.cfi_offset w16, -2492
	.cfi_offset w17, -2502
	.cfi_offset w12, -2562
	.cfi_offset w13, -2572
	.cfi_offset w14, -2582
	.cfi_offset w15, -2592
	.cfi_offset w16, -2602
	.cfi_offset w17, -2612
	.cfi_offset w12, -2622
	.cfi_offset w13, -2632
	.cfi_offset w14, -2642
	.cfi_offset w15, -2652
	.cfi_offset w16, -2662
	.cfi_offset w17, -2672
	.cfi_offset w12, -2682
	.cfi_offset w13, -2692
	.cfi_offset w14, -2702
	.cfi_offset w15, -2712
	.cfi_offset w16, -2722
	.cfi_offset w17, -2732
	.cfi_offset w12, -2742
	.cfi_offset w13, -2752
	.cfi_offset w14, -2762
	.cfi_offset w15, -2772
	.cfi_offset w16, -2782
	.cfi_offset w17, -2792
	.cfi_offset w12, -2802
	.cfi_offset w13, -2812
	.cfi_offset w14, -2822
	.cfi_offset w15, -2832
	.cfi_offset w16, -2842
	.cfi_offset w17, -2852
	.cfi_offset w12, -2862
	.cfi_offset w13, -2872
	.cfi_offset w14, -2882
	.cfi_offset w15, -2892
	.cfi_offset w16, -2902
	.cfi_offset w17, -2912
	.cfi_offset w12, -922
	.cfi_offset w13, -932
	.cfi_offset w14, -942
	.cfi_offset w15, -952
	.cfi_offset w16, -962
	.cfi_offset w17, -972
	.cfi_offset w12, -982
	.cfi_offset w13, -992
	.cfi_offset w14, -1002
	.cfi_offset w15, -1012
	.cfi_offset w16, -1022
	.cfi_offset w17, -1032
	.cfi_offset w12, -1042
	.cfi_offset w13, -1052
	.cfi_offset w14, -1062
	.cfi_offset w15, -1072
	.cfi_offset w16, -1082
	.cfi_offset w17, -1092
	.cfi_offset w12, -1102
	.cfi_offset w13, -1112
	.cfi_offset w14, -1122
	.cfi_offset w15, -1132
	.cfi_offset w16, -1142
	.cfi_offset w17, -1152
	.cfi_offset w12, -1162
	.cfi_offset w13, -1172
	.cfi_offset w14, -1182
	.cfi_offset w15, -1192
	.cfi_offset w16, -1202
	.cfi_offset w17, -1212
	.cfi_offset w12, -1222
	.cfi_offset w13, -1232
	.cfi_offset w14, -1242
	.cfi_offset w15, -1252
	.cfi_offset w16, -1262
	.cfi_offset w17, -1272
	.cfi_offset w12, -1282
	.cfi_offset w13, -1292
	.cfi_offset w14, -1302
	.cfi_offset w15, -1312
	.cfi_offset w16, -1322
	.cfi_offset w17, -1332
	.cfi_offset w12, -1342
	.cfi_offset w13, -1352
	.cfi_offset w14, -1362
	.cfi_offset w15, -1372
	.cfi_offset w16, -1382
	.cfi_offset w17, -1392
	.cfi_offset w12, -1402
	.cfi_offset w13, -1412
	.cfi_offset w14, -1422
	.cfi_offset w15, -1432
	.cfi_offset w16, -1442
	.cfi_offset w17, -1452
	.cfi_offset w12, -1462
	.cfi_offset w13, -1472
	.cfi_offset w14, -1482
	.cfi_offset w15, -1492
	.cfi_offset w16, -1502
	.cfi_offset w17, -1512
	.cfi_offset w12, -1522
	.cfi_offset w13, -1532
	.cfi_offset w14, -1542
	.cfi_offset w15, -1552
	.cfi_offset w16, -1562
	.cfi_offset w17, -1572
	.cfi_offset w12, -1582
	.cfi_offset w13, -1592
	.cfi_offset w14, -1602
	.cfi_offset w15, -1612
	.cfi_offset w16, -1622
	.cfi_offset w17, -1632
	.cfi_offset w12, -1642
	.cfi_offset w13, -1652
	.cfi_offset w14, -1662
	.cfi_offset w15, -1672
	.cfi_offset w16, -1682
	.cfi_offset w17, -1692
	.cfi_offset w12, -1702
	.cfi_offset w13, -1712
	.cfi_offset w14, -1722
	.cfi_offset w15, -1732
	.cfi_offset w16, -1742
	.cfi_offset w17, -1752
	.cfi_offset w12, -1762
	.cfi_offset w13, -1772
	.cfi_offset w14, -1782
	.cfi_offset w15, -1792
	.cfi_offset w16, -1802
	.cfi_offset w17, -1812
	.cfi_offset w12, -1822
	.cfi_offset w13, -1832
	.cfi_offset w14, -1842
	.cfi_offset w15, -1852
	.cfi_offset w16, -1862
	.cfi_offset w17, -1872
	.cfi_offset w12, -1882
	.cfi_offset w13, -1892
	.cfi_offset w14, -1902
	.cfi_offset w15, -1912
	.cfi_offset w16, -1922
	.cfi_offset w17, -1932
	.cfi_offset w12, -1942
	.cfi_offset w13, -1952
	.cfi_offset w14, -1962
	.cfi_offset w15, -1972
	.cfi_offset w16, -1982
	.cfi_offset w17, -1992
	.cfi_offset w12, -2002
	.cfi_offset w13, -2012
	.cfi_offset w14, -2022
	.cfi_offset w15, -2032
	.cfi_offset w16, -2042
	.cfi_offset w17, -2052
	.cfi_offset w12, -2262
	.cfi_offset w13, -2272
	.cfi_offset w14, -2282
	.cfi_offset w15, -2292
	.cfi_offset w16, -2302
	.cfi_offset w17, -2332
	.cfi_offset w12, -2342
	.cfi_offset w13, -2352
	.cfi_offset w14, -2362
	.cfi_offset w15, -2372
	.cfi_offset w16, -2382
	.cfi_offset w17, -2392
	.cfi_offset w12, -2402
	.cfi_offset w13, -2452
	.cfi_offset w14, -2462
	.cfi_offset w15, -2472
	.cfi_offset w16, -2482
	.cfi_offset w17, -2492
	.cfi_offset w12, -2502
	.cfi_offset w13, -2522
	.cfi_offset w14, -2532
	.cfi_offset w15, -2542
	.cfi_offset w16, -2552
	.cfi_offset w17, -2562
	.cfi_offset w12, -2572
	.cfi_offset w13, -2582
	.cfi_offset w14, -2592
	.cfi_offset w15, -2602
	.cfi_offset w16, -2612
	.cfi_offset w17, -2622
	.cfi_offset w12, -2632
	.cfi_offset w13, -2642
	.cfi_offset w14, -2652
	.cfi_offset w15, -2662
	.cfi_offset w16, -2672
	.cfi_offset w17, -2682
	.cfi_offset w12, -2692
	.cfi_offset w13, -2702
	.cfi_offset w14, -2712
	.cfi_offset w15, -2722
	.cfi_offset w16, -2732
	.cfi_offset w17, -2742
	.cfi_offset w12, -2752
	.cfi_offset w13, -2762
	.cfi_offset w14, -2772
	.cfi_offset w15, -2782
	.cfi_offset w16, -2792
	.cfi_offset w17, -2802
	.cfi_offset w12, -2812
	.cfi_offset w13, -2822
	.cfi_offset w14, -2832
	.cfi_offset w15, -2842
	.cfi_offset w16, -2852
	.cfi_offset w17, -2862
	.cfi_offset w12, -2872
	.cfi_offset w13, -2882
	.cfi_offset w14, -2892
	.cfi_offset w15, -2902
	.cfi_offset w16, -912
	.cfi_offset w17, -922
	.cfi_offset w12, -932
	.cfi_offset w13, -942
	.cfi_offset w14, -952
	.cfi_offset w15, -962
	.cfi_offset w16, -972
	.cfi_offset w17, -982
	.cfi_offset w12, -992
	.cfi_offset w13, -912
	.cfi_offset w14, -921
	.cfi_offset w15, -931
	.cfi_offset w16, -941
	.cfi_offset w17, -951
	.cfi_offset w12, -961
	.cfi_offset w13, -971
	.cfi_offset w14, -981
	.cfi_offset w15, -998
	.cfi_offset w16, -1008
	.cfi_offset w17, -1018
	.cfi_offset w12, -1028
	.cfi_offset w13, -1038
	.cfi_offset w14, -1048
	.cfi_offset w15, -1058
	.cfi_offset w16, -1068
	.cfi_offset w17, -1078
	.cfi_offset w12, -1088
	.cfi_offset w13, -1098
	.cfi_offset w14, -1109
	.cfi_offset w15, -1119
	.cfi_offset w16, -1129
	.cfi_offset w17, -1139
	.cfi_offset w12, -1149
	.cfi_offset w13, -1159
	.cfi_offset w14, -1169
	.cfi_offset w15, -1179
	.cfi_offset w16, -1189
	.cfi_offset w17, -1199
	.cfi_offset w12, -1209
	.cfi_offset w13, -1219
	.cfi_offset w14, -1229
	.cfi_offset w15, -1239
	.cfi_offset w16, -1249
	.cfi_offset w17, -1259
	.cfi_offset w12, -1269
	.cfi_offset w13, -1279
	.cfi_offset w14, -1289
	.cfi_offset w15, -1299
	.cfi_offset w16, -1309
	.cfi_offset w17, -1319
	.cfi_offset w12, -1329
	.cfi_offset w13, -1339
	.cfi_offset w14, -1349
	.cfi_offset w15, -1359
	.cfi_offset w16, -1369
	.cfi_offset w17, -1379
	.cfi_offset w12, -1389
	.cfi_offset w13, -1399
	.cfi_offset w14, -1409
	.cfi_offset w15, -1459
	.cfi_offset w16, -1469
	.cfi_offset w17, -1479
	.cfi_offset w12, -1489
	.cfi_offset w13, -1499
	.cfi_offset w14, -1509
	.cfi_offset w15, -1519
	.cfi_offset w16, -1529
	.cfi_offset w17, -1539
	.cfi_offset w12, -1549
	.cfi_offset w13, -1559
	.cfi_offset w14, -1569
	.cfi_offset w15, -1579
	.cfi_offset w16, -1589
	.cfi_offset w17, -1599
	.cfi_offset w12, -1609
	.cfi_offset w13, -1619
	.cfi_offset w14, -1629
	.cfi_offset w15, -1639
	.cfi_offset w16, -1649
	.cfi_offset w17, -1659
	.cfi_offset w12, -1669
	.cfi_offset w13, -1679
	.cfi_offset w14, -1689
	.cfi_offset w15, -1699
	.cfi_offset w16, -1709
	.cfi_offset w17, -1779
	.cfi_offset w12, -1789
	.cfi_offset w13, -1799
	.cfi_offset w14, -1809
	.cfi_offset w15, -1819
	.cfi_offset w16, -1829
	.cfi_offset w17, -1839
	.cfi_offset w12, -1849
	.cfi_offset w13, -1859
	.cfi_offset w14, -1869
	.cfi_offset w15, -1879
	.cfi_offset w16, -1889
	.cfi_offset w17, -1899
	.cfi_offset w
