```armasm
	.section	__TEXT,__text,regular,pure_instructions
	.build_version macos, 13, 0	sdk_version 13, 3
	.globl	_func0                          ; -- Begin function func0
	.p2align	2
_func1:                                 ; @func1
	.cfi_startproc
; %bb.0:
	stp	x22, x21, [sp, #-48]!           ; 16-byte Folded Spill
	.cfi_def_cfa_offset 48
	stp	x20, x23, [sp, #16]             ; 16-byte Folded Spill
	stp	x24, x25, [sp, #32]             ; 16-byte Folded Spill
	stp	x26, x27, [sp, #48]             ; 16-byte Folded Spill
	.cfi_offset w26, -8
	.cfi_offset w25, -16
	.cfi_offset w24, -24
	.cfi_offset w22, -12
	.cfi_offset w23, -20
	.cfi_offset w24, -28
	.cfi_offset w25, -36
	.cfi_offset w26, -44
	.cfi_offset w27, -12
	.cfi_offset w22, -20
	.cfi_offset w23, -32
	.cfi_offset w24, -40
	.cfi_offset w25, -52
	.cfi_offset w26, -60
	.cfi_offset w27, -72
	.cfi_offset w28, -80
	.cfi_offset w29, -92
	.cfi_offset w30, -102
	.cfi_offset w30, -112
	.cfi_offset w31, -120
	.cfi_offset w32, -128
	.cfi_offset w33, -136
	.cfi_offset w34, -144
	.cfi_offset w35, -152
	.cfi_offset w36, -160
	.cfi_offset w37, -168
	.cfi_offset w38, -176
	.cfi_offset w39, -184
	.cfi_offset w40, -192
	.cfi_offset w40, -200
	.cfi_offset w45, -220
	.cfi_offset w46, -228
	.cfi_offset w47, -236
	.cfi_offset w48, -244
	.cfi_offset w49, -52
	.cfi_offset w50, -60
	.cfi_offset w53, -72
	.cfi_offset w54, -80
	.cfi_offset w55, -92
	.cfi_offset w56, -100
	.cfi_offset w57, -108
	.cfi_offset w58, -116
	.cfi_offset w59, -124
	.cfi_offset w60, -132
	.cfi_offset w61, -140
	.cfi_offset w62, -148
	.cfi_offset w63, -156
	.cfi_offset w64, -164
	.cfi_offset w65, -172
	.cfi_offset w66, -180
	.cfi_offset w67, -188
	.cfi_offset w68, -196
	.cfi_offset w69, -204
	.cfi_offset w70, -212
	.cfi_offset w71, -220
	.cfi_offset w72, -228
	.cfi_offset w73, -336
	.cfi_offset w74, -344
	.cfi_offset w75, -352
	.cfi_offset w76, -360
	.cfi_offset w77, -368
	.cfi_offset w78, -376
	.cfi_offset w79, -384
	.cfi_offset w80, -392
	.cfi_offset w81, -400
	.cfi_offset w82, -408
	.cfi_offset w83, -4104
	.cfi_offset w84, -4120
	.cfi_offset w85, -4128
	.cfi_offset w86, -4136
	.cfi_offset w87, -4144
	.cfi_offset w88, -4152
	.cfi_offset w89, -4160
	.cfi_offset w90, -4168
	.cfi_offset w91, -4176
	.cfi_offset w92, -4184
	.cfi_offset w93, -4192
	.cfi_offset w94, -500
	.cfi_offset w95, -508
	.cfi_offset w96, -516
	.cfi_offset w97, -524
	.cfi_offset w98, -532
	.cfi_offset w99, -540
	.cfi_offset w100, -548
	.cfi_offset w101, -556
	.cfi_offset w102, -564
	.cfi_offset w103, -572
	.cfi_offset w104, -580
	.cfi_offset w105, -588
	.cfi_offset w106, -596
	.cfi_offset w107, -604
	.cfi_offset w108, -612
	.cfi_offset w109, -620
	.cfi_offset w110, -628
	.cfi_offset w111, -636
	.cfi_offset w112, -644
	.cfi_offset w113, -652
	.cfi_offset w114, -660
	.cfi_offset w115, -668
	.cfi_offset w116, -676
	.cfi_offset w117, -684
	.cfi_offset w118, -692
	.cfi_offset w119, -700
	.cfi_offset w120, -708
	.cfi_offset w121, -716
	.cfi_offset w122, -724
	.cfi_offset w123, -732
	.cfi_offset w124, -740
	.cfi_offset w125, -748
	.cfi_offset w126, -756
	.cfi_offset w127, -764
	.cfi_offset w128, -772
	.cfi_offset w129, -780
	.cfi_offset w130, -788
	.cfi_offset w131, -796
	.cfi_offset w132, -804
	.cfi_offset w133, -812
	.cfi_offset w134, -820
	.cfi_offset w135, -828
	.cfi_offset w136, -836
	.cfi_offset w137, -844
	.cfi_offset w138, -852
	.cfi_offset w139, -860
	.cfi_offset w140, -868
	.cfi_offset w141, -876
	.cfi_offset w142, -884
	.cfi_offset w143, -892
	.cfi_offset w144, -900
	.cfi_offset w145, -908
	.cfi_offset w146, -916
	.cfi_offset w147, -924
	.cfi_offset w148, -932
	.cfi_offset w149, -940
	.cfi_offset w150, -948
	.cfi_offset w151, -956
	.cfi_offset w152, -964
	.cfi_offset w153, -972
	.cfi_offset w154, -980
	.cfi_offset w155, -988
	.cfi_offset w156, -996
	.cfi_offset w157, -1004
	.cfi_offset w158, -1012
	.cfi_offset w159, -1020
	.cfi_offset w160, -1028
	.cfi_offset w161, -1036
	.cfi_offset w162, -1044
	.cfi_offset w163, -1052
	.cfi_offset w164, -1060
	.cfi_offset w165, -1068
	.cfi_offset w166, -1076
	.cfi_offset w167, -1084
	.cfi_offset w168, -1092
	.cfi_offset w169, -1000
	.cfi_offset w170, -1008
	.cfi_offset w171, -1016
	.cfi_offset w172, -1024
	.cfi_offset w173, -1032
	.cfi_offset w174, -1040
	.cfi_offset w175, -1048
	.cfi_offset w176, -1056
	.cfi_offset w177, -1064
	.cfi_offset w178, -1072
	.cfi_offset w179, -1080
	.cfi_offset w180, -1092
	.cfi_offset w181, -1096
	.cfi_offset w182, -1104
	.cfi_offset w183, -1112
	.cfi_offset w184, -1120
	.cfi_offset w185, -1128
	.cfi_offset w186, -1136
	.cfi_offset w187, -1144
	.cfi_offset w188, -1152
	.cfi_offset w189, -1160
	.cfi_offset w190, -1168
	.cfi_offset w191, -1176
	.cfi_offset w192, -1184
	.cfi_offset w193, -1192
	.cfi_offset w194, -1200
	.cfi_offset w195, -1208
	.cfi_offset w196, -1216
	.cfi_offset w197, -1224
	.cfi_offset w198, -1232
	.cfi_offset w199, -1240
	.cfi_offset w200, -1248
	.cfi_offset w201, -1256
	.cfi_offset w202, -1264
	.cfi_offset w203, -1272
	.cfi_offset w204, -1280
	.cfi_offset w24, -1300
	.cfi_offset w25, -1328
	.cfi_offset w26, -1336
	.cfi_offset w27, -1344
	.cfi_offset w28, -1352
	.cfi_offset w29, -1360
	.cfi_offset w30, -1370
	.cfi_offset w30, -1384
	.cfi_offset w31, -1392
	.cfi_offset w32, -1400
	.cfi_offset w33, -1428
	.cfi_offset w34, -1436
	.cfi_offset w35, -1444
	.cfi_offset w36, -1452
	.cfi_offset w37, -1460
	.cfi_offset w38, -1470
	.cfi_offset w39, -1480
	.cfi_offset w40, -1492
	.cfi_offset w41, -1500
	.cfi_offset w42, -1528
	.cfi_offset w43, -1536
	.cfi_offset w44, -1544
	.cfi_offset w45, -1552
	.cfi_offset w46, -1560
	.cfi_offset w47, -1570
	.cfi_offset w48, -1580
	.cfi_offset w49, -1590
	.cfi_offset w50, -1600
	.cfi_offset w51, -1608
	.cfi_offset w52, -1626
	.cfi_offset w53, -1634
	.cfi_offset w54, -1642
	.cfi_offset w55, -1650
	.cfi_offset w56, -1660
	.cfi_offset w57, -1668
	.cfi_offset w58, -1676
	.cfi_offset w59, -1684
	.cfi_offset w60, -1692
	.cfi_offset w61, -1700
	.cfi_offset w62, -1708
	.cfi_offset w63, -1726
	.cfi_offset w64, -1734
	.cfi_offset w65, -1742
	.cfi_offset w66, -1750
	.cfi_offset w67, -1760
	.cfi_offset w68, -1768
	.cfi_offset w69, -1776
	.cfi_offset w70, -1784
	.cfi_offset w72, -1792
	.cfi_offset w73, -1800
	.cfi_offset w74, -1808
	.cfi_offset w75, -1876
	.cfi_offset w76, -1884
	.cfi_offset w77, -1892
	.cfi_offset w78, -1900
	.cfi_offset w79, -1908
	.cfi_offset w80, -1916
	.cfi_offset w81, -1924
	.cfi_offset w82, -1932
	.cfi_offset w83, -1940
	.cfi_offset w84, -1948
	.cfi_offset w85, -1956
	.cfi_offset w86, -1964
	.cfi_offset w87, -1972
	.cfi_offset w88, -1980
	.cfi_offset w89, -1988
	.cfi_offset w90, -1996
	.cfi_offset w91, -2004
	.cfi_offset w92, -2012
	.cfi_offset w93, -2020
	.cfi_offset w94, -2028
	.cfi_offset w95, -2036
	.cfi_offset w96, -2044
	.cfi_offset w97, -2052
	.cfi_offset w98, -2060
	.cfi_offset w99, -2068
	.cfi_offset w100, -2076
	.cfi_offset w101, -2084
	.cfi_offset w102, -2092
	.cfi_offset w103, -2100
	.cfi_offset w104, -1008
	.cfi_offset w105, -1016
	.cfi_offset w106, -1024
	.cfi_offset w107, -1032
	.cfi_offset w108, -1040
	.cfi_offset w109, -1048
	.cfi_offset w110, -1056
	.cfi_offset w111, -1064
	.cfi_offset w112, -1072
	.cfi_offset w113, -1080
	.cfi_offset w114, -1088
	.cfi_offset w115, -1096
	.cfi_offset w116, -1104
	.cfi_offset w117, -1112
	.cfi_offset w118, -1120
	.cfi_offset w119, -1128
	.cfi_offset w120, -1136
	.cfi_offset w121, -1144
	.cfi_offset w122, -1152
	.cfi_offset w123, -1160
	.cfi_offset w124, -1168
	.cfi_offset w125, -1176
	.cfi_offset w126, -1184
	.cfi_offset w127, -1192
	.cfi_offset w128, -1200
	.cfi_offset w129, -1208
	.cfi_offset w130, -1236
	.cfi_offset w133, -1244
	.cfi_offset w134, -1252
	.cfi_offset w135, -1260
	.cfi_offset w136, -1268
	.cfi_offset w137, -1276
	.cfi_offset w138, -1284
	.cfi_offset w139, -1292
	.cfi_offset w140, -1300
	.cfi_offset w142, -1328
	.cfi_offset w143, -1336
	.cfi_offset w144, -1344
	.cfi_offset w145, -1352
	.cfi_offset w146, -1360
	.cfi_offset w147, -1368
	.cfi_offset w148, -1376
	.cfi_offset w149, -1384
	.cfi_offset w150, -1392
	.cfi_offset w151, -1400
	.cfi_offset w152, -1408
	.cfi_offset w153, -1416
	.cfi_offset w154, -1424
	.cfi_offset w155, -1432
	.cfi_offset w156, -1440
	.cfi_offset w157, -1448
	.cfi_offset w158, -1456
	.cfi_offset w159, -1464
	.cfi_offset w160, -1472
	.cfi_offset w161, -1480
	.cfi_offset w162, -1488
	.cfi_offset w163, -1496
	.cfi_offset w164, -1504
	.cfi_offset w165, -1512
	.cfi_offset w166, -1520
	.cfi_offset w167, -1528
	.cfi_offset w168, -1536
	.cfi_offset w169, -1544
	.cfi_offset w170, -1552
	.cfi_offset w171, -1560
	.cfi_offset w172, -1568
	.cfi_offset w173, -1576
